target datalayout = "e-m:e-p270:32:32-p271:32:32-p272:64:64-i64:64-i128:128-f80:128-n8:16:32:64-S128"
target triple = "x86_64-pc-linux-gnu"

; Function Attrs: nounwind uwtable
define internal void @Float32_To_Int16_Dither(ptr noundef %0, i32 noundef %1, ptr noundef %2, i32 noundef %3, i32 noundef %4, ptr noundef %5) #0 {
  %7 = alloca ptr, align 8
  %8 = alloca i32, align 4
  %9 = alloca ptr, align 8
  %10 = alloca i32, align 4
  %11 = alloca i32, align 4
  %12 = alloca ptr, align 8
  %13 = alloca ptr, align 8
  %14 = alloca ptr, align 8
  %15 = alloca float, align 4
  %16 = alloca float, align 4
  store ptr %0, ptr %7, align 8, !tbaa !70
  store i32 %1, ptr %8, align 4, !tbaa !71
  store ptr %2, ptr %9, align 8, !tbaa !70
  store i32 %3, ptr %10, align 4, !tbaa !71
  store i32 %4, ptr %11, align 4, !tbaa !71
  store ptr %5, ptr %12, align 8, !tbaa !73
  call void @llvm.lifetime.start.p0(i64 8, ptr %13) #4
  %17 = load ptr, ptr %9, align 8, !tbaa !70
  store ptr %17, ptr %13, align 8, !tbaa !75
  call void @llvm.lifetime.start.p0(i64 8, ptr %14) #4
  %18 = load ptr, ptr %7, align 8, !tbaa !70
  store ptr %18, ptr %14, align 8, !tbaa !94
  br label %19

19:                                               ; preds = %23, %6
  %20 = load i32, ptr %11, align 4, !tbaa !71
  %21 = add i32 %20, -1
  store i32 %21, ptr %11, align 4, !tbaa !71
  %22 = icmp ne i32 %20, 0
  br i1 %22, label %23, label %41

23:                                               ; preds = %19
  call void @llvm.lifetime.start.p0(i64 4, ptr %15) #4
  %24 = load ptr, ptr %12, align 8, !tbaa !73
  %25 = call float @PaUtil_GenerateFloatTriangularDither(ptr noundef %24)
  store float %25, ptr %15, align 4, !tbaa !79
  call void @llvm.lifetime.start.p0(i64 4, ptr %16) #4
  %26 = load ptr, ptr %13, align 8, !tbaa !75
  %27 = load float, ptr %26, align 4, !tbaa !79
  %28 = load float, ptr %15, align 4, !tbaa !79
  %29 = call float @llvm.fmuladd.f32(float %27, float 3.276600e+04, float %28)
  store float %29, ptr %16, align 4, !tbaa !79
  %30 = load float, ptr %16, align 4, !tbaa !79
  %31 = fptosi float %30 to i16
  %32 = load ptr, ptr %14, align 8, !tbaa !94
  store i16 %31, ptr %32, align 2, !tbaa !96
  %33 = load i32, ptr %10, align 4, !tbaa !71
  %34 = load ptr, ptr %13, align 8, !tbaa !75
  %35 = sext i32 %33 to i64
  %36 = getelementptr inbounds float, ptr %34, i64 %35
  store ptr %36, ptr %13, align 8, !tbaa !75
  %37 = load i32, ptr %8, align 4, !tbaa !71
  %38 = load ptr, ptr %14, align 8, !tbaa !94
  %39 = sext i32 %37 to i64
  %40 = getelementptr inbounds i16, ptr %38, i64 %39
  store ptr %40, ptr %14, align 8, !tbaa !94
  call void @llvm.lifetime.end.p0(i64 4, ptr %16) #4
  call void @llvm.lifetime.end.p0(i64 4, ptr %15) #4
  br label %19, !llvm.loop !99

41:                                               ; preds = %19
  call void @llvm.lifetime.end.p0(i64 8, ptr %14) #4
  call void @llvm.lifetime.end.p0(i64 8, ptr %13) #4
  ret void
}