; Function Attrs: nounwind uwtable
define internal void @Float32_To_Int16_Dither(ptr noundef writeonly captures(none) %0, i32 noundef %1, ptr noundef readonly captures(none) %2, i32 noundef %3, i32 noundef %4, ptr noundef %5) #3 {
  %.not13 = icmp eq i32 %4, 0
  br i1 %.not13, label %._crit_edge, label %.lr.ph

.lr.ph:                                           ; preds = %6
  %7 = sext i32 %3 to i64
  %8 = sext i32 %1 to i64
  br label %9

9:                                                ; preds = %.lr.ph, %9
  %.016 = phi i32 [ %4, %.lr.ph ], [ %10, %9 ]
  %.01115 = phi ptr [ %2, %.lr.ph ], [ %15, %9 ]
  %.01214 = phi ptr [ %0, %.lr.ph ], [ %16, %9 ]
  %10 = add i32 %.016, -1
  %11 = tail call float @PaUtil_GenerateFloatTriangularDither(ptr noundef %5) #9
  %12 = load float, ptr %.01115, align 4, !tbaa !68
  %13 = tail call float @llvm.fmuladd.f32(float %12, float 3.276600e+04, float %11)
  %14 = fptosi float %13 to i16
  store i16 %14, ptr %.01214, align 2, !tbaa !81
  %15 = getelementptr inbounds float, ptr %.01115, i64 %7
  %16 = getelementptr inbounds i16, ptr %.01214, i64 %8
  %.not = icmp eq i32 %10, 0
  br i1 %.not, label %._crit_edge, label %9, !llvm.loop !84

._crit_edge:                                      ; preds = %9, %6
  ret void
}